target datalayout = "e-m:e-p270:32:32-p271:32:32-p272:64:64-i64:64-i128:128-f80:128-n8:16:32:64-S128"
target triple = "x86_64-pc-linux-gnu"

%"class.std::__cxx11::basic_string" = type { %"struct.std::__cxx11::basic_string<char>::_Alloc_hider", i64, %union.anon }
%"struct.std::__cxx11::basic_string<char>::_Alloc_hider" = type { ptr }
%union.anon = type { i64, [8 x i8] }
%"struct.nix::ExperimentalFeatureSettings" = type { %"class.nix::Config", %"class.nix::Setting.93" }
%"class.nix::Config" = type { %"class.nix::AbstractConfig", %"class.std::map.7" }
%"class.nix::AbstractConfig" = type { ptr, %"class.std::map" }
%"class.std::map" = type { %"class.std::_Rb_tree.3" }
%"class.std::_Rb_tree.3" = type { %"struct.std::_Rb_tree<std::__cxx11::basic_string<char>, std::pair<const std::__cxx11::basic_string<char>, std::__cxx11::basic_string<char>>, std::_Select1st<std::pair<const std::__cxx11::basic_string<char>, std::__cxx11::basic_string<char>>>, std::less<std::__cxx11::basic_string<char>>>::_Rb_tree_impl" }
%"struct.std::_Rb_tree<std::__cxx11::basic_string<char>, std::pair<const std::__cxx11::basic_string<char>, std::__cxx11::basic_string<char>>, std::_Select1st<std::pair<const std::__cxx11::basic_string<char>, std::__cxx11::basic_string<char>>>, std::less<std::__cxx11::basic_string<char>>>::_Rb_tree_impl" = type { %"struct.std::_Rb_tree_key_compare", %"struct.std::_Rb_tree_header" }
%"struct.std::_Rb_tree_key_compare" = type { %"struct.std::less" }
%"struct.std::less" = type { i8 }
%"struct.std::_Rb_tree_header" = type { %"struct.std::_Rb_tree_node_base", i64 }
%"struct.std::_Rb_tree_node_base" = type { i32, ptr, ptr, ptr }
%"class.std::map.7" = type { %"class.std::_Rb_tree.8" }
%"class.std::_Rb_tree.8" = type { %"struct.std::_Rb_tree<std::__cxx11::basic_string<char>, std::pair<const std::__cxx11::basic_string<char>, nix::Config::SettingData>, std::_Select1st<std::pair<const std::__cxx11::basic_string<char>, nix::Config::SettingData>>, std::less<std::__cxx11::basic_string<char>>>::_Rb_tree_impl" }
%"struct.std::_Rb_tree<std::__cxx11::basic_string<char>, std::pair<const std::__cxx11::basic_string<char>, nix::Config::SettingData>, std::_Select1st<std::pair<const std::__cxx11::basic_string<char>, nix::Config::SettingData>>, std::less<std::__cxx11::basic_string<char>>>::_Rb_tree_impl" = type { %"struct.std::_Rb_tree_key_compare", %"struct.std::_Rb_tree_header" }
%"class.nix::Setting.93" = type { %"class.nix::BaseSetting.base.103", [7 x i8] }
%"class.nix::BaseSetting.base.103" = type <{ %"class.nix::AbstractSetting", %"class.std::set.95", %"class.std::set.95", i8 }>
%"class.nix::AbstractSetting" = type { ptr, %"class.std::__cxx11::basic_string", %"class.std::__cxx11::basic_string", %"class.std::set", i32, i8, [3 x i8], %"class.std::optional" }
%"class.std::set" = type { %"class.std::_Rb_tree" }
%"class.std::_Rb_tree" = type { %"struct.std::_Rb_tree<std::__cxx11::basic_string<char>, std::__cxx11::basic_string<char>, std::_Identity<std::__cxx11::basic_string<char>>, std::less<std::__cxx11::basic_string<char>>>::_Rb_tree_impl" }
%"struct.std::_Rb_tree<std::__cxx11::basic_string<char>, std::__cxx11::basic_string<char>, std::_Identity<std::__cxx11::basic_string<char>>, std::less<std::__cxx11::basic_string<char>>>::_Rb_tree_impl" = type { %"struct.std::_Rb_tree_key_compare", %"struct.std::_Rb_tree_header" }
%"class.std::optional" = type { %"struct.std::_Optional_base" }
%"struct.std::_Optional_base" = type { %"struct.std::_Optional_payload" }
%"struct.std::_Optional_payload" = type { %"struct.std::_Optional_payload_base.base", [3 x i8] }
%"struct.std::_Optional_payload_base.base" = type <{ %"union.std::_Optional_payload_base<nix::ExperimentalFeature>::_Storage", i8 }>
%"union.std::_Optional_payload_base<nix::ExperimentalFeature>::_Storage" = type { i32 }
%"class.std::set.95" = type { %"class.std::_Rb_tree.96" }
%"class.std::_Rb_tree.96" = type { %"struct.std::_Rb_tree<nix::ExperimentalFeature, nix::ExperimentalFeature, std::_Identity<nix::ExperimentalFeature>, std::less<nix::ExperimentalFeature>>::_Rb_tree_impl" }
%"struct.std::_Rb_tree<nix::ExperimentalFeature, nix::ExperimentalFeature, std::_Identity<nix::ExperimentalFeature>, std::less<nix::ExperimentalFeature>>::_Rb_tree_impl" = type { %"struct.std::_Rb_tree_key_compare.100", %"struct.std::_Rb_tree_header" }
%"struct.std::_Rb_tree_key_compare.100" = type { %"struct.std::less.101" }
%"struct.std::less.101" = type { i8 }
%"struct.nix::Hash" = type <{ i64, [64 x i8], i8, [7 x i8] }>
%"class.std::allocator" = type { i8 }
%"class.std::basic_string_view" = type { i64, ptr }
%"struct.nix::Realisation" = type { %"struct.nix::DrvOutput", %"class.nix::StorePath", %"class.std::set", %"class.std::map.136" }
%"struct.nix::DrvOutput" = type { %"struct.nix::Hash", %"class.std::__cxx11::basic_string" }
%"class.nix::StorePath" = type { %"class.std::__cxx11::basic_string" }
%"class.std::map.136" = type { %"class.std::_Rb_tree.137" }
%"class.std::_Rb_tree.137" = type { %"struct.std::_Rb_tree<nix::DrvOutput, std::pair<const nix::DrvOutput, nix::StorePath>, std::_Select1st<std::pair<const nix::DrvOutput, nix::StorePath>>, std::less<nix::DrvOutput>>::_Rb_tree_impl" }
%"struct.std::_Rb_tree<nix::DrvOutput, std::pair<const nix::DrvOutput, nix::StorePath>, std::_Select1st<std::pair<const nix::DrvOutput, nix::StorePath>>, std::less<nix::DrvOutput>>::_Rb_tree_impl" = type { %"struct.std::_Rb_tree_key_compare.141", %"struct.std::_Rb_tree_header" }
%"struct.std::_Rb_tree_key_compare.141" = type { %"struct.std::less.142" }
%"struct.std::less.142" = type { i8 }

@_ZTIN3nix5ErrorE = linkonce_odr constant { ptr, ptr, ptr } { ptr getelementptr inbounds (ptr, ptr @_ZTVN10__cxxabiv120__si_class_type_infoE, i64 2), ptr @_ZTSN3nix5ErrorE, ptr @_ZTIN3nix9BaseErrorE }, comdat, align 8
@_ZN3nix27experimentalFeatureSettingsE = external global %"struct.nix::ExperimentalFeatureSettings", align 8
@.str.97 = private unnamed_addr constant [79 x i8] c"cannot register realisation '%s' because it lacks a signature by a trusted key\00", align 1

; Function Attrs: mustprogress nounwind uwtable
define linkonce_odr noundef ptr @_ZNKSt7__cxx1112basic_stringIcSt11char_traitsIcESaIcEE7_M_dataEv(ptr noundef nonnull align 8 dereferenceable(32) %0) #2 comdat align 2 {
  %2 = alloca ptr, align 8
  store ptr %0, ptr %2, align 8
  %3 = load ptr, ptr %2, align 8
  %4 = getelementptr inbounds %"class.std::__cxx11::basic_string", ptr %3, i32 0, i32 0
  %5 = getelementptr inbounds %"struct.std::__cxx11::basic_string<char>::_Alloc_hider", ptr %4, i32 0, i32 0
  %6 = load ptr, ptr %5, align 8
  ret ptr %6
}

; Function Attrs: mustprogress nounwind uwtable
define linkonce_odr void @_ZNSt17basic_string_viewIcSt11char_traitsIcEEC2EPKcm(ptr noundef nonnull align 8 dereferenceable(16) %0, ptr noundef %1, i64 noundef %2) unnamed_addr #2 comdat align 2 {
  %4 = alloca ptr, align 8
  %5 = alloca ptr, align 8
  %6 = alloca i64, align 8
  store ptr %0, ptr %4, align 8
  store ptr %1, ptr %5, align 8
  store i64 %2, ptr %6, align 8
  %7 = load ptr, ptr %4, align 8
  %8 = getelementptr inbounds %"class.std::basic_string_view", ptr %7, i32 0, i32 0
  %9 = load i64, ptr %6, align 8
  store i64 %9, ptr %8, align 8
  %10 = getelementptr inbounds %"class.std::basic_string_view", ptr %7, i32 0, i32 1
  %11 = load ptr, ptr %5, align 8
  store ptr %11, ptr %10, align 8
  ret void
}

; Function Attrs: mustprogress nounwind uwtable
define linkonce_odr noundef i64 @_ZNKSt7__cxx1112basic_stringIcSt11char_traitsIcESaIcEE4sizeEv(ptr noundef nonnull align 8 dereferenceable(32) %0) #2 comdat align 2 {
  %2 = alloca ptr, align 8
  store ptr %0, ptr %2, align 8
  %3 = load ptr, ptr %2, align 8
  %4 = getelementptr inbounds %"class.std::__cxx11::basic_string", ptr %3, i32 0, i32 1
  %5 = load i64, ptr %4, align 8
  ret i64 %5
}

; Function Attrs: mustprogress nounwind uwtable
define linkonce_odr noundef ptr @_ZNKSt7__cxx1112basic_stringIcSt11char_traitsIcESaIcEE4dataEv(ptr noundef nonnull align 8 dereferenceable(32) %0) #2 comdat align 2 {
  %2 = alloca ptr, align 8
  store ptr %0, ptr %2, align 8
  %3 = load ptr, ptr %2, align 8
  %4 = call noundef ptr @_ZNKSt7__cxx1112basic_stringIcSt11char_traitsIcESaIcEE7_M_dataEv(ptr noundef nonnull align 8 dereferenceable(32) %3)
  ret ptr %4
}

; Function Attrs: mustprogress nounwind uwtable
define linkonce_odr { i64, ptr } @_ZNKSt7__cxx1112basic_stringIcSt11char_traitsIcESaIcEEcvSt17basic_string_viewIcS2_EEv(ptr noundef nonnull align 8 dereferenceable(32) %0) #2 comdat align 2 {
  %2 = alloca %"class.std::basic_string_view", align 8
  %3 = alloca ptr, align 8
  store ptr %0, ptr %3, align 8
  %4 = load ptr, ptr %3, align 8
  %5 = call noundef ptr @_ZNKSt7__cxx1112basic_stringIcSt11char_traitsIcESaIcEE4dataEv(ptr noundef nonnull align 8 dereferenceable(32) %4) #1
  %6 = call noundef i64 @_ZNKSt7__cxx1112basic_stringIcSt11char_traitsIcESaIcEE4sizeEv(ptr noundef nonnull align 8 dereferenceable(32) %4) #1
  call void @_ZNSt17basic_string_viewIcSt11char_traitsIcEEC2EPKcm(ptr noundef nonnull align 8 dereferenceable(16) %2, ptr noundef %5, i64 noundef %6) #1
  %7 = load { i64, ptr }, ptr %2, align 8
  ret { i64, ptr } %7
}

; Function Attrs: mustprogress nounwind uwtable
define linkonce_odr { i64, ptr } @_ZNK3nix9StorePath9to_stringEv(ptr noundef nonnull align 8 dereferenceable(32) %0) #2 comdat align 2 {
  %2 = alloca %"class.std::basic_string_view", align 8
  %3 = alloca ptr, align 8
  store ptr %0, ptr %3, align 8
  %4 = load ptr, ptr %3, align 8
  %5 = getelementptr inbounds %"class.nix::StorePath", ptr %4, i32 0, i32 0
  %6 = call { i64, ptr } @_ZNKSt7__cxx1112basic_stringIcSt11char_traitsIcESaIcEEcvSt17basic_string_viewIcS2_EEv(ptr noundef nonnull align 8 dereferenceable(32) %5) #1
  %7 = getelementptr inbounds { i64, ptr }, ptr %2, i32 0, i32 0
  %8 = extractvalue { i64, ptr } %6, 0
  store i64 %8, ptr %7, align 8
  %9 = getelementptr inbounds { i64, ptr }, ptr %2, i32 0, i32 1
  %10 = extractvalue { i64, ptr } %6, 1
  store ptr %10, ptr %9, align 8
  %11 = load { i64, ptr }, ptr %2, align 8
  ret { i64, ptr } %11
}

; Function Attrs: mustprogress uwtable
define void @_ZN3nix10LocalStore17registerDrvOutputERKNS_11RealisationENS_13CheckSigsFlagE(ptr noundef nonnull align 8 dereferenceable(504) %0, ptr noundef nonnull align 8 dereferenceable(240) %1, i1 noundef zeroext %2) unnamed_addr #5 align 2 personality ptr @__gxx_personality_v0 {
  %4 = alloca ptr, align 8
  %5 = alloca ptr, align 8
  %6 = alloca i8, align 1
  %7 = alloca i32, align 4
  %8 = alloca %"class.std::__cxx11::basic_string", align 8
  %9 = alloca %"class.std::allocator", align 1
  %10 = alloca ptr, align 8
  %11 = alloca i32, align 4
  %12 = alloca %"class.std::basic_string_view", align 8
  %13 = alloca i1, align 1
  store ptr %0, ptr %4, align 8
  store ptr %1, ptr %5, align 8
  %14 = zext i1 %2 to i8
  store i8 %14, ptr %6, align 1
  %15 = load ptr, ptr %4, align 8
  store i32 0, ptr %7, align 4
  call void @_ZNK3nix27ExperimentalFeatureSettings7requireERKNS_19ExperimentalFeatureE(ptr noundef nonnull align 8 dereferenceable(344) @_ZN3nix27experimentalFeatureSettingsE, ptr noundef nonnull align 4 dereferenceable(4) %7)
  %16 = load i8, ptr %6, align 1
  %17 = trunc i8 %16 to i1
  %18 = zext i1 %17 to i32
  %19 = icmp eq i32 %18, 0
  br i1 %19, label %26, label %20

20:                                               ; preds = %3
  %21 = load ptr, ptr %5, align 8
  %22 = load ptr, ptr %15, align 8
  %23 = getelementptr inbounds ptr, ptr %22, i64 22
  %24 = load ptr, ptr %23, align 8
  %25 = call noundef zeroext i1 %24(ptr noundef nonnull align 8 dereferenceable(504) %15, ptr noundef nonnull align 8 dereferenceable(240) %21)
  br i1 %25, label %31, label %26

26:                                               ; preds = %20, %3
  %27 = load ptr, ptr %5, align 8
  %28 = load ptr, ptr %15, align 8
  %29 = getelementptr inbounds ptr, ptr %28, i64 31
  %30 = load ptr, ptr %29, align 8
  call void %30(ptr noundef nonnull align 8 dereferenceable(504) %15, ptr noundef nonnull align 8 dereferenceable(240) %27)
  br label %55

31:                                               ; preds = %20
  store i1 true, ptr %13, align 1
  %32 = call ptr @__cxa_allocate_exception(i64 376) #1
  call void @_ZNSaIcEC1Ev(ptr noundef nonnull align 1 dereferenceable(1) %9) #1
  invoke void @_ZNSt7__cxx1112basic_stringIcSt11char_traitsIcESaIcEEC2IS3_EEPKcRKS3_(ptr noundef nonnull align 8 dereferenceable(32) %8, ptr noundef @.str.97, ptr noundef nonnull align 1 dereferenceable(1) %9)
          to label %33 unwind label %43

33:                                               ; preds = %31
  %34 = load ptr, ptr %5, align 8
  %35 = getelementptr inbounds %"struct.nix::Realisation", ptr %34, i32 0, i32 1
  %36 = invoke { i64, ptr } @_ZNK3nix9StorePath9to_stringEv(ptr noundef nonnull align 8 dereferenceable(32) %35)
          to label %37 unwind label %47

37:                                               ; preds = %33
  %38 = getelementptr inbounds { i64, ptr }, ptr %12, i32 0, i32 0
  %39 = extractvalue { i64, ptr } %36, 0
  store i64 %39, ptr %38, align 8
  %40 = getelementptr inbounds { i64, ptr }, ptr %12, i32 0, i32 1
  %41 = extractvalue { i64, ptr } %36, 1
  store ptr %41, ptr %40, align 8
  invoke void @_ZN3nix5ErrorCI2NS_9BaseErrorEIJSt17basic_string_viewIcSt11char_traitsIcEEEEERKNSt7__cxx1112basic_stringIcS3_SaIcEEEDpRKT_(ptr noundef nonnull align 8 dereferenceable(376) %32, ptr noundef nonnull align 8 dereferenceable(32) %8, ptr noundef nonnull align 8 dereferenceable(16) %12)
          to label %42 unwind label %47

42:                                               ; preds = %37
  store i1 false, ptr %13, align 1
  invoke void @__cxa_throw(ptr %32, ptr @_ZTIN3nix5ErrorE, ptr @_ZN3nix5ErrorD2Ev) #22
          to label %61 unwind label %47

43:                                               ; preds = %31
  %44 = landingpad { ptr, i32 }
          cleanup
  %45 = extractvalue { ptr, i32 } %44, 0
  store ptr %45, ptr %10, align 8
  %46 = extractvalue { ptr, i32 } %44, 1
  store i32 %46, ptr %11, align 4
  br label %51

47:                                               ; preds = %42, %37, %33
  %48 = landingpad { ptr, i32 }
          cleanup
  %49 = extractvalue { ptr, i32 } %48, 0
  store ptr %49, ptr %10, align 8
  %50 = extractvalue { ptr, i32 } %48, 1
  store i32 %50, ptr %11, align 4
  call void @_ZNSt7__cxx1112basic_stringIcSt11char_traitsIcESaIcEED2Ev(ptr noundef nonnull align 8 dereferenceable(32) %8) #1
  br label %51

51:                                               ; preds = %47, %43
  call void @_ZNSaIcED1Ev(ptr noundef nonnull align 1 dereferenceable(1) %9) #1
  %52 = load i1, ptr %13, align 1
  br i1 %52, label %53, label %54

53:                                               ; preds = %51
  call void @__cxa_free_exception(ptr %32) #1
  br label %54

54:                                               ; preds = %53, %51
  br label %56

55:                                               ; preds = %26
  ret void

56:                                               ; preds = %54
  %57 = load ptr, ptr %10, align 8
  %58 = load i32, ptr %11, align 4
  %59 = insertvalue { ptr, i32 } poison, ptr %57, 0
  %60 = insertvalue { ptr, i32 } %59, i32 %58, 1
  resume { ptr, i32 } %60

61:                                               ; preds = %42
  unreachable
}