; Function Attrs: mustprogress uwtable
define void @_ZN3nix10LocalStore17registerDrvOutputERKNS_11RealisationENS_13CheckSigsFlagE(ptr noundef nonnull align 8 dereferenceable(504) %0, ptr noundef nonnull align 8 dereferenceable(240) %1, i1 noundef zeroext %2) unnamed_addr #5 align 2 personality ptr @__gxx_personality_v0 {
  %4 = alloca i32, align 4
  %5 = alloca %"class.std::__cxx11::basic_string", align 8
  %6 = alloca %"class.std::allocator", align 1
  %7 = alloca %"class.std::basic_string_view", align 8
  store i32 0, ptr %4, align 4
  call void @_ZNK3nix27ExperimentalFeatureSettings7requireERKNS_19ExperimentalFeatureE(ptr noundef nonnull align 8 dereferenceable(344) @_ZN3nix27experimentalFeatureSettingsE, ptr noundef nonnull align 4 dereferenceable(4) %4)
  br i1 %2, label %8, label %13

8:                                                ; preds = %3
  %9 = load ptr, ptr %0, align 8
  %10 = getelementptr inbounds i8, ptr %9, i64 176
  %11 = load ptr, ptr %10, align 8
  %12 = call noundef zeroext i1 %11(ptr noundef nonnull align 8 dereferenceable(504) %0, ptr noundef nonnull align 8 dereferenceable(240) %1)
  br i1 %12, label %17, label %13

13:                                               ; preds = %8, %3
  %14 = load ptr, ptr %0, align 8
  %15 = getelementptr inbounds i8, ptr %14, i64 248
  %16 = load ptr, ptr %15, align 8
  call void %16(ptr noundef nonnull align 8 dereferenceable(504) %0, ptr noundef nonnull align 8 dereferenceable(240) %1)
  ret void

17:                                               ; preds = %8
  %18 = call ptr @__cxa_allocate_exception(i64 376) #33
  call void @_ZNSaIcEC1Ev(ptr noundef nonnull align 1 dereferenceable(1) %6) #33
  invoke void @_ZNSt7__cxx1112basic_stringIcSt11char_traitsIcESaIcEEC2IS3_EEPKcRKS3_(ptr noundef nonnull align 8 dereferenceable(32) %5, ptr noundef nonnull @.str.97, ptr noundef nonnull align 1 dereferenceable(1) %6)
          to label %19 unwind label %.thread

19:                                               ; preds = %17
  %20 = getelementptr inbounds i8, ptr %1, i64 112
  %21 = load ptr, ptr %20, align 8
  %22 = getelementptr inbounds i8, ptr %1, i64 120
  %23 = load i64, ptr %22, align 8
  store i64 %23, ptr %7, align 8
  %24 = getelementptr inbounds i8, ptr %7, i64 8
  store ptr %21, ptr %24, align 8
  invoke void @_ZN3nix5ErrorCI2NS_9BaseErrorEIJSt17basic_string_viewIcSt11char_traitsIcEEEEERKNSt7__cxx1112basic_stringIcS3_SaIcEEEDpRKT_(ptr noundef nonnull align 8 dereferenceable(376) %18, ptr noundef nonnull align 8 dereferenceable(32) %5, ptr noundef nonnull align 8 dereferenceable(16) %7)
          to label %25 unwind label %27

25:                                               ; preds = %19
  invoke void @__cxa_throw(ptr nonnull %18, ptr nonnull @_ZTIN3nix5ErrorE, ptr nonnull @_ZN3nix5ErrorD2Ev) #34
          to label %31 unwind label %27

.thread:                                          ; preds = %17
  %26 = landingpad { ptr, i32 }
          cleanup
  call void @_ZNSaIcED1Ev(ptr noundef nonnull align 1 dereferenceable(1) %6) #33
  br label %29

27:                                               ; preds = %19, %25
  %.0 = phi i1 [ false, %25 ], [ true, %19 ]
  %28 = landingpad { ptr, i32 }
          cleanup
  call void @_ZNSt7__cxx1112basic_stringIcSt11char_traitsIcESaIcEED2Ev(ptr noundef nonnull align 8 dereferenceable(32) %5) #33
  call void @_ZNSaIcED1Ev(ptr noundef nonnull align 1 dereferenceable(1) %6) #33
  br i1 %.0, label %29, label %30

29:                                               ; preds = %.thread, %27
  %.pn13 = phi { ptr, i32 } [ %26, %.thread ], [ %28, %27 ]
  call void @__cxa_free_exception(ptr %18) #33
  br label %30

30:                                               ; preds = %27, %29
  %.pn12 = phi { ptr, i32 } [ %28, %27 ], [ %.pn13, %29 ]
  resume { ptr, i32 } %.pn12

31:                                               ; preds = %25
  unreachable
}